target datalayout = "e-m:e-p270:32:32-p271:32:32-p272:64:64-i64:64-i128:128-f80:128-n8:16:32:64-S128"
target triple = "x86_64-pc-linux-gnu"

%struct.jpeg_compress_struct = type { ptr, ptr, ptr, ptr, i32, i32, ptr, i32, i32, i32, i32, double, i32, i32, i32, ptr, [4 x ptr], [4 x ptr], [4 x ptr], [16 x i8], [16 x i8], [16 x i8], i32, ptr, i32, i32, i32, i32, i32, i32, i32, i32, i32, i8, i8, i8, i16, i16, i32, i32, i32, i32, i32, i32, i32, [4 x ptr], i32, i32, i32, [10 x i32], i32, i32, i32, i32, ptr, ptr, ptr, ptr, ptr, ptr, ptr, ptr, ptr, ptr, i32 }
%struct.jpeg_error_mgr = type { ptr, ptr, ptr, ptr, ptr, i32, %union.anon, i32, i64, ptr, i32, ptr, i32, i32 }
%union.anon = type { [8 x i32], [48 x i8] }
%struct.ppm_source_struct = type { %struct.cjpeg_source_struct, ptr, ptr, i64, ptr, i32 }
%struct.cjpeg_source_struct = type { ptr, ptr, ptr, ptr, ptr, ptr, ptr, i32, i32 }

; Function Attrs: nounwind uwtable
define internal i32 @get_raw_row(ptr noundef %0, ptr noundef %1) #0 {
  %3 = alloca ptr, align 8
  %4 = alloca ptr, align 8
  %5 = alloca ptr, align 8
  store ptr %0, ptr %3, align 8, !tbaa !4
  store ptr %1, ptr %4, align 8, !tbaa !46
  call void @llvm.lifetime.start.p0(i64 8, ptr %5) #6
  %6 = load ptr, ptr %4, align 8, !tbaa !46
  store ptr %6, ptr %5, align 8, !tbaa !37
  %7 = load ptr, ptr %5, align 8, !tbaa !37
  %8 = getelementptr inbounds nuw %struct.ppm_source_struct, ptr %7, i32 0, i32 1
  %9 = load ptr, ptr %8, align 8, !tbaa !61
  %10 = load ptr, ptr %5, align 8, !tbaa !37
  %11 = getelementptr inbounds nuw %struct.ppm_source_struct, ptr %10, i32 0, i32 3
  %12 = load i64, ptr %11, align 8, !tbaa !60
  %13 = load ptr, ptr %5, align 8, !tbaa !37
  %14 = getelementptr inbounds nuw %struct.ppm_source_struct, ptr %13, i32 0, i32 0
  %15 = getelementptr inbounds nuw %struct.cjpeg_source_struct, ptr %14, i32 0, i32 3
  %16 = load ptr, ptr %15, align 8, !tbaa !48
  %17 = call i64 @fread(ptr noundef %9, i64 noundef 1, i64 noundef %12, ptr noundef %16)
  %18 = load ptr, ptr %5, align 8, !tbaa !37
  %19 = getelementptr inbounds nuw %struct.ppm_source_struct, ptr %18, i32 0, i32 3
  %20 = load i64, ptr %19, align 8, !tbaa !60
  %21 = icmp eq i64 %17, %20
  br i1 %21, label %33, label %22

22:                                               ; preds = %2
  %23 = load ptr, ptr %3, align 8, !tbaa !4
  %24 = getelementptr inbounds nuw %struct.jpeg_compress_struct, ptr %23, i32 0, i32 0
  %25 = load ptr, ptr %24, align 8, !tbaa !27
  %26 = getelementptr inbounds nuw %struct.jpeg_error_mgr, ptr %25, i32 0, i32 5
  store i32 43, ptr %26, align 8, !tbaa !28
  %27 = load ptr, ptr %3, align 8, !tbaa !4
  %28 = getelementptr inbounds nuw %struct.jpeg_compress_struct, ptr %27, i32 0, i32 0
  %29 = load ptr, ptr %28, align 8, !tbaa !27
  %30 = getelementptr inbounds nuw %struct.jpeg_error_mgr, ptr %29, i32 0, i32 0
  %31 = load ptr, ptr %30, align 8, !tbaa !33
  %32 = load ptr, ptr %3, align 8, !tbaa !4
  call void %31(ptr noundef %32)
  br label %33

33:                                               ; preds = %22, %2
  call void @llvm.lifetime.end.p0(i64 8, ptr %5) #6
  ret i32 1
}