; Function Attrs: nounwind uwtable
define internal noundef i32 @get_raw_row(ptr noundef %0, ptr noundef readonly captures(none) %1) #0 {
  %3 = getelementptr inbounds nuw i8, ptr %1, i64 64
  %4 = load ptr, ptr %3, align 8, !tbaa !54
  %5 = getelementptr inbounds nuw i8, ptr %1, i64 80
  %6 = load i64, ptr %5, align 8, !tbaa !53
  %7 = getelementptr inbounds nuw i8, ptr %1, i64 24
  %8 = load ptr, ptr %7, align 8, !tbaa !43
  %9 = tail call i64 @fread(ptr noundef %4, i64 noundef 1, i64 noundef %6, ptr noundef %8)
  %10 = load i64, ptr %5, align 8, !tbaa !53
  %11 = icmp eq i64 %9, %10
  br i1 %11, label %16, label %12

12:                                               ; preds = %2
  %13 = load ptr, ptr %0, align 8, !tbaa !25
  %14 = getelementptr inbounds nuw i8, ptr %13, i64 40
  store i32 43, ptr %14, align 8, !tbaa !26
  %15 = load ptr, ptr %13, align 8, !tbaa !31
  tail call void %15(ptr noundef nonnull %0) #6
  br label %16

16:                                               ; preds = %12, %2
  ret i32 1
}